target datalayout = "e-m:e-p270:32:32-p271:32:32-p272:64:64-i64:64-i128:128-f80:128-n8:16:32:64-S128"
target triple = "x86_64-pc-linux-gnu"

%struct.IdStrMap = type { i32, [12 x i8] }

@ff_img_tags = external constant [0 x %struct.IdStrMap], align 4

; Function Attrs: nounwind uwtable
define internal i32 @query_codec(i32 noundef %0, i32 noundef %1) #0 {
  %3 = alloca i32, align 4
  %4 = alloca i32, align 4
  %5 = alloca i32, align 4
  %6 = alloca i32, align 4
  %7 = alloca i32, align 4
  store i32 %0, ptr %4, align 4, !tbaa !59
  store i32 %1, ptr %5, align 4, !tbaa !59
  call void @llvm.lifetime.start.p0(i64 4, ptr %6) #8
  store i32 0, ptr %6, align 4, !tbaa !59
  br label %8

8:                                                ; preds = %25, %2
  %9 = load i32, ptr %6, align 4, !tbaa !59
  %10 = sext i32 %9 to i64
  %11 = getelementptr inbounds [0 x %struct.IdStrMap], ptr @ff_img_tags, i64 0, i64 %10
  %12 = getelementptr inbounds nuw %struct.IdStrMap, ptr %11, i32 0, i32 0
  %13 = load i32, ptr %12, align 4, !tbaa !84
  %14 = icmp ne i32 %13, 0
  br i1 %14, label %15, label %28

15:                                               ; preds = %8
  %16 = load i32, ptr %6, align 4, !tbaa !59
  %17 = sext i32 %16 to i64
  %18 = getelementptr inbounds [0 x %struct.IdStrMap], ptr @ff_img_tags, i64 0, i64 %17
  %19 = getelementptr inbounds nuw %struct.IdStrMap, ptr %18, i32 0, i32 0
  %20 = load i32, ptr %19, align 4, !tbaa !84
  %21 = load i32, ptr %4, align 4, !tbaa !59
  %22 = icmp eq i32 %20, %21
  br i1 %22, label %23, label %24

23:                                               ; preds = %15
  store i32 1, ptr %3, align 4
  store i32 1, ptr %7, align 4
  br label %32

24:                                               ; preds = %15
  br label %25

25:                                               ; preds = %24
  %26 = load i32, ptr %6, align 4, !tbaa !59
  %27 = add nsw i32 %26, 1
  store i32 %27, ptr %6, align 4, !tbaa !59
  br label %8, !llvm.loop !86

28:                                               ; preds = %8
  %29 = load i32, ptr %5, align 4, !tbaa !59
  %30 = icmp slt i32 %29, 0
  %31 = zext i1 %30 to i32
  store i32 %31, ptr %3, align 4
  store i32 1, ptr %7, align 4
  br label %32

32:                                               ; preds = %28, %23
  call void @llvm.lifetime.end.p0(i64 4, ptr %6) #8
  %33 = load i32, ptr %3, align 4
  ret i32 %33
}