; Function Attrs: nofree norecurse nosync nounwind memory(none) uwtable
define internal range(i32 0, 2) i32 @query_codec(i32 noundef %0, i32 noundef %1) #1 {
  %3 = load i32, ptr @ff_img_tags, align 4, !tbaa !71
  %.not8 = icmp eq i32 %3, 0
  br i1 %.not8, label %._crit_edge, label %.lr.ph

4:                                                ; preds = %.lr.ph
  %indvars.iv.next = add nuw nsw i64 %indvars.iv, 1
  %5 = getelementptr inbounds nuw [0 x %struct.IdStrMap], ptr @ff_img_tags, i64 0, i64 %indvars.iv.next
  %6 = load i32, ptr %5, align 4, !tbaa !71
  %.not = icmp eq i32 %6, 0
  br i1 %.not, label %._crit_edge, label %.lr.ph, !llvm.loop !73

.lr.ph:                                           ; preds = %2, %4
  %indvars.iv = phi i64 [ %indvars.iv.next, %4 ], [ 0, %2 ]
  %7 = phi i32 [ %6, %4 ], [ %3, %2 ]
  %8 = icmp eq i32 %7, %0
  br i1 %8, label %.loopexit, label %4

._crit_edge:                                      ; preds = %4, %2
  %.lobit = lshr i32 %1, 31
  br label %.loopexit

.loopexit:                                        ; preds = %.lr.ph, %._crit_edge
  %.06 = phi i32 [ %.lobit, %._crit_edge ], [ 1, %.lr.ph ]
  ret i32 %.06
}